; Function Attrs: mustprogress uwtable
define noundef i32 @_ZNK6casadi5Split7eval_sxEPPKNS_6SXElemEPPS1_PxS5_(ptr nocapture noundef nonnull readonly align 8 dereferenceable(112) %0, ptr nocapture noundef readonly %1, ptr nocapture noundef readonly %2, ptr nocapture readnone %3, ptr nocapture readnone %4) unnamed_addr #3 align 2 {
  %6 = getelementptr inbounds i8, ptr %0, i64 64
  %7 = getelementptr inbounds i8, ptr %0, i64 72
  %8 = load ptr, ptr %7, align 8
  %9 = load ptr, ptr %6, align 8
  %10 = ptrtoint ptr %8 to i64
  %11 = ptrtoint ptr %9 to i64
  %12 = sub i64 %10, %11
  %13 = ashr exact i64 %12, 3
  %14 = icmp sgt i64 %13, 1
  br i1 %14, label %.lr.ph.preheader.i, label %_ZNK6casadi5Split8eval_genINS_6SXElemEEEiPPKT_PPS3_PxS7_.exit

.lr.ph.preheader.i:                               ; preds = %5
  %15 = add nsw i64 %13, -2
  br label %.lr.ph.i

.lr.ph.i:                                         ; preds = %_ZSt4copyIPKN6casadi6SXElemEPS1_ET0_T_S6_S5_.exit.i, %.lr.ph.preheader.i
  %.014.i = phi i64 [ %16, %_ZSt4copyIPKN6casadi6SXElemEPS1_ET0_T_S6_S5_.exit.i ], [ 0, %.lr.ph.preheader.i ]
  %16 = add nuw nsw i64 %.014.i, 1
  %17 = getelementptr inbounds ptr, ptr %2, i64 %.014.i
  %18 = load ptr, ptr %17, align 8
  %.not.i = icmp eq ptr %18, null
  br i1 %.not.i, label %_ZSt4copyIPKN6casadi6SXElemEPS1_ET0_T_S6_S5_.exit.i, label %19

19:                                               ; preds = %.lr.ph.i
  %20 = load ptr, ptr %6, align 8
  %21 = getelementptr inbounds i64, ptr %20, i64 %16
  %22 = getelementptr inbounds i64, ptr %20, i64 %.014.i
  %23 = load i64, ptr %22, align 8
  %24 = load i64, ptr %21, align 8
  %25 = load ptr, ptr %1, align 8
  %26 = getelementptr inbounds %"class.casadi::SXElem", ptr %25, i64 %23
  %27 = getelementptr inbounds %"class.casadi::SXElem", ptr %25, i64 %24
  %28 = ptrtoint ptr %27 to i64
  %29 = ptrtoint ptr %26 to i64
  %30 = sub i64 %28, %29
  %31 = ashr exact i64 %30, 3
  %32 = icmp sgt i64 %31, 0
  br i1 %32, label %.lr.ph.i.i.i.i.i.i, label %_ZSt4copyIPKN6casadi6SXElemEPS1_ET0_T_S6_S5_.exit.i

.lr.ph.i.i.i.i.i.i:                               ; preds = %19, %.lr.ph.i.i.i.i.i.i
  %.012.i.i.i.i.i.i = phi i64 [ %36, %.lr.ph.i.i.i.i.i.i ], [ %31, %19 ]
  %.0811.i.i.i.i.i.i = phi ptr [ %35, %.lr.ph.i.i.i.i.i.i ], [ %18, %19 ]
  %.0910.i.i.i.i.i.i = phi ptr [ %34, %.lr.ph.i.i.i.i.i.i ], [ %26, %19 ]
  %33 = tail call noundef nonnull align 8 dereferenceable(8) ptr @_ZN6casadi6SXElemaSERKS0_(ptr noundef nonnull align 8 dereferenceable(8) %.0811.i.i.i.i.i.i, ptr noundef nonnull align 8 dereferenceable(8) %.0910.i.i.i.i.i.i)
  %34 = getelementptr inbounds i8, ptr %.0910.i.i.i.i.i.i, i64 8
  %35 = getelementptr inbounds i8, ptr %.0811.i.i.i.i.i.i, i64 8
  %36 = add nsw i64 %.012.i.i.i.i.i.i, -1
  %37 = icmp ugt i64 %.012.i.i.i.i.i.i, 1
  br i1 %37, label %.lr.ph.i.i.i.i.i.i, label %_ZSt4copyIPKN6casadi6SXElemEPS1_ET0_T_S6_S5_.exit.i, !llvm.loop !13

_ZSt4copyIPKN6casadi6SXElemEPS1_ET0_T_S6_S5_.exit.i: ; preds = %.lr.ph.i.i.i.i.i.i, %19, %.lr.ph.i
  %exitcond.not.i = icmp eq i64 %.014.i, %15
  br i1 %exitcond.not.i, label %_ZNK6casadi5Split8eval_genINS_6SXElemEEEiPPKT_PPS3_PxS7_.exit, label %.lr.ph.i, !llvm.loop !14

_ZNK6casadi5Split8eval_genINS_6SXElemEEEiPPKT_PPS3_PxS7_.exit: ; preds = %_ZSt4copyIPKN6casadi6SXElemEPS1_ET0_T_S6_S5_.exit.i, %5
  ret i32 0
}